target datalayout = "e-m:e-p270:32:32-p271:32:32-p272:64:64-i64:64-i128:128-f80:128-n8:16:32:64-S128"
target triple = "x86_64-pc-linux-gnu"

%struct.UCaseContext = type { ptr, i32, i32, i32, i32, i32, i8, i8, i8, i8 }

@.str = private unnamed_addr constant [17 x i8] c" 000000000000\1000\00", align 1
@.str.1 = private unnamed_addr constant [17 x i8] c"\00\00\00\00\00\00\00\00\1E\0F\0F\0F\00\00\00\00\00", align 1

; Function Attrs: mustprogress uwtable
define internal noundef i32 @_ZN12_GLOBAL__N_124utf8_caseContextIteratorEPva(ptr noundef %0, i8 noundef signext %1) #1 {
  %3 = alloca i32, align 4
  %4 = alloca ptr, align 8
  %5 = alloca i8, align 1
  %6 = alloca ptr, align 8
  %7 = alloca i32, align 4
  %8 = alloca i32, align 4
  %9 = alloca i8, align 1
  store ptr %0, ptr %4, align 8, !tbaa !22
  store i8 %1, ptr %5, align 1, !tbaa !30
  call void @llvm.lifetime.start.p0(i64 8, ptr %6) #12
  %10 = load ptr, ptr %4, align 8, !tbaa !22
  store ptr %10, ptr %6, align 8, !tbaa !48
  call void @llvm.lifetime.start.p0(i64 4, ptr %7) #12
  %11 = load i8, ptr %5, align 1, !tbaa !30
  %12 = sext i8 %11 to i32
  %13 = icmp slt i32 %12, 0
  br i1 %13, label %14, label %23

14:                                               ; preds = %2
  %15 = load ptr, ptr %6, align 8, !tbaa !48
  %16 = getelementptr inbounds nuw %struct.UCaseContext, ptr %15, i32 0, i32 4
  %17 = load i32, ptr %16, align 4, !tbaa !43
  %18 = load ptr, ptr %6, align 8, !tbaa !48
  %19 = getelementptr inbounds nuw %struct.UCaseContext, ptr %18, i32 0, i32 2
  store i32 %17, ptr %19, align 4, !tbaa !50
  %20 = load i8, ptr %5, align 1, !tbaa !30
  %21 = load ptr, ptr %6, align 8, !tbaa !48
  %22 = getelementptr inbounds nuw %struct.UCaseContext, ptr %21, i32 0, i32 6
  store i8 %20, ptr %22, align 4, !tbaa !51
  br label %41

23:                                               ; preds = %2
  %24 = load i8, ptr %5, align 1, !tbaa !30
  %25 = sext i8 %24 to i32
  %26 = icmp sgt i32 %25, 0
  br i1 %26, label %27, label %36

27:                                               ; preds = %23
  %28 = load ptr, ptr %6, align 8, !tbaa !48
  %29 = getelementptr inbounds nuw %struct.UCaseContext, ptr %28, i32 0, i32 5
  %30 = load i32, ptr %29, align 8, !tbaa !44
  %31 = load ptr, ptr %6, align 8, !tbaa !48
  %32 = getelementptr inbounds nuw %struct.UCaseContext, ptr %31, i32 0, i32 2
  store i32 %30, ptr %32, align 4, !tbaa !50
  %33 = load i8, ptr %5, align 1, !tbaa !30
  %34 = load ptr, ptr %6, align 8, !tbaa !48
  %35 = getelementptr inbounds nuw %struct.UCaseContext, ptr %34, i32 0, i32 6
  store i8 %33, ptr %35, align 4, !tbaa !51
  br label %40

36:                                               ; preds = %23
  %37 = load ptr, ptr %6, align 8, !tbaa !48
  %38 = getelementptr inbounds nuw %struct.UCaseContext, ptr %37, i32 0, i32 6
  %39 = load i8, ptr %38, align 4, !tbaa !51
  store i8 %39, ptr %5, align 1, !tbaa !30
  br label %40

40:                                               ; preds = %36, %27
  br label %41

41:                                               ; preds = %40, %14
  %42 = load i8, ptr %5, align 1, !tbaa !30
  %43 = sext i8 %42 to i32
  %44 = icmp slt i32 %43, 0
  br i1 %44, label %45, label %85

45:                                               ; preds = %41
  %46 = load ptr, ptr %6, align 8, !tbaa !48
  %47 = getelementptr inbounds nuw %struct.UCaseContext, ptr %46, i32 0, i32 1
  %48 = load i32, ptr %47, align 8, !tbaa !52
  %49 = load ptr, ptr %6, align 8, !tbaa !48
  %50 = getelementptr inbounds nuw %struct.UCaseContext, ptr %49, i32 0, i32 2
  %51 = load i32, ptr %50, align 4, !tbaa !50
  %52 = icmp slt i32 %48, %51
  br i1 %52, label %53, label %84

53:                                               ; preds = %45
  br label %54

54:                                               ; preds = %53
  %55 = load ptr, ptr %6, align 8, !tbaa !48
  %56 = getelementptr inbounds nuw %struct.UCaseContext, ptr %55, i32 0, i32 0
  %57 = load ptr, ptr %56, align 8, !tbaa !38
  %58 = load ptr, ptr %6, align 8, !tbaa !48
  %59 = getelementptr inbounds nuw %struct.UCaseContext, ptr %58, i32 0, i32 2
  %60 = load i32, ptr %59, align 4, !tbaa !50
  %61 = add nsw i32 %60, -1
  store i32 %61, ptr %59, align 4, !tbaa !50
  %62 = sext i32 %61 to i64
  %63 = getelementptr inbounds i8, ptr %57, i64 %62
  %64 = load i8, ptr %63, align 1, !tbaa !30
  %65 = zext i8 %64 to i32
  store i32 %65, ptr %7, align 4, !tbaa !14
  %66 = load i32, ptr %7, align 4, !tbaa !14
  %67 = and i32 %66, 128
  %68 = icmp eq i32 %67, 0
  br i1 %68, label %80, label %69

69:                                               ; preds = %54
  %70 = load ptr, ptr %6, align 8, !tbaa !48
  %71 = getelementptr inbounds nuw %struct.UCaseContext, ptr %70, i32 0, i32 0
  %72 = load ptr, ptr %71, align 8, !tbaa !38
  %73 = load ptr, ptr %6, align 8, !tbaa !48
  %74 = getelementptr inbounds nuw %struct.UCaseContext, ptr %73, i32 0, i32 1
  %75 = load i32, ptr %74, align 8, !tbaa !52
  %76 = load ptr, ptr %6, align 8, !tbaa !48
  %77 = getelementptr inbounds nuw %struct.UCaseContext, ptr %76, i32 0, i32 2
  %78 = load i32, ptr %7, align 4, !tbaa !14
  %79 = call i32 @utf8_prevCharSafeBody_77(ptr noundef %72, i32 noundef %75, ptr noundef %77, i32 noundef %78, i8 noundef signext -1)
  store i32 %79, ptr %7, align 4, !tbaa !14
  br label %80

80:                                               ; preds = %69, %54
  br label %81

81:                                               ; preds = %80
  br label %82

82:                                               ; preds = %81
  %83 = load i32, ptr %7, align 4, !tbaa !14
  store i32 %83, ptr %3, align 4
  store i32 1, ptr %8, align 4
  br label %257

84:                                               ; preds = %45
  br label %256

85:                                               ; preds = %41
  %86 = load ptr, ptr %6, align 8, !tbaa !48
  %87 = getelementptr inbounds nuw %struct.UCaseContext, ptr %86, i32 0, i32 2
  %88 = load i32, ptr %87, align 4, !tbaa !50
  %89 = load ptr, ptr %6, align 8, !tbaa !48
  %90 = getelementptr inbounds nuw %struct.UCaseContext, ptr %89, i32 0, i32 3
  %91 = load i32, ptr %90, align 8, !tbaa !40
  %92 = icmp slt i32 %88, %91
  br i1 %92, label %93, label %255

93:                                               ; preds = %85
  br label %94

94:                                               ; preds = %93
  %95 = load ptr, ptr %6, align 8, !tbaa !48
  %96 = getelementptr inbounds nuw %struct.UCaseContext, ptr %95, i32 0, i32 0
  %97 = load ptr, ptr %96, align 8, !tbaa !38
  %98 = load ptr, ptr %6, align 8, !tbaa !48
  %99 = getelementptr inbounds nuw %struct.UCaseContext, ptr %98, i32 0, i32 2
  %100 = load i32, ptr %99, align 4, !tbaa !50
  %101 = add nsw i32 %100, 1
  store i32 %101, ptr %99, align 4, !tbaa !50
  %102 = sext i32 %100 to i64
  %103 = getelementptr inbounds i8, ptr %97, i64 %102
  %104 = load i8, ptr %103, align 1, !tbaa !30
  %105 = zext i8 %104 to i32
  store i32 %105, ptr %7, align 4, !tbaa !14
  %106 = load i32, ptr %7, align 4, !tbaa !14
  %107 = and i32 %106, 128
  %108 = icmp eq i32 %107, 0
  br i1 %108, label %251, label %109

109:                                              ; preds = %94
  call void @llvm.lifetime.start.p0(i64 1, ptr %9) #12
  store i8 0, ptr %9, align 1, !tbaa !30
  %110 = load ptr, ptr %6, align 8, !tbaa !48
  %111 = getelementptr inbounds nuw %struct.UCaseContext, ptr %110, i32 0, i32 2
  %112 = load i32, ptr %111, align 4, !tbaa !50
  %113 = load ptr, ptr %6, align 8, !tbaa !48
  %114 = getelementptr inbounds nuw %struct.UCaseContext, ptr %113, i32 0, i32 3
  %115 = load i32, ptr %114, align 8, !tbaa !40
  %116 = icmp ne i32 %112, %115
  br i1 %116, label %117, label %249

117:                                              ; preds = %109
  %118 = load i32, ptr %7, align 4, !tbaa !14
  %119 = icmp sge i32 %118, 224
  br i1 %119, label %120, label %217

120:                                              ; preds = %117
  %121 = load i32, ptr %7, align 4, !tbaa !14
  %122 = icmp slt i32 %121, 240
  br i1 %122, label %123, label %149

123:                                              ; preds = %120
  %124 = load i32, ptr %7, align 4, !tbaa !14
  %125 = and i32 %124, 15
  store i32 %125, ptr %7, align 4, !tbaa !14
  %126 = sext i32 %125 to i64
  %127 = getelementptr inbounds [17 x i8], ptr @.str, i64 0, i64 %126
  %128 = load i8, ptr %127, align 1, !tbaa !30
  %129 = sext i8 %128 to i32
  %130 = load ptr, ptr %6, align 8, !tbaa !48
  %131 = getelementptr inbounds nuw %struct.UCaseContext, ptr %130, i32 0, i32 0
  %132 = load ptr, ptr %131, align 8, !tbaa !38
  %133 = load ptr, ptr %6, align 8, !tbaa !48
  %134 = getelementptr inbounds nuw %struct.UCaseContext, ptr %133, i32 0, i32 2
  %135 = load i32, ptr %134, align 4, !tbaa !50
  %136 = sext i32 %135 to i64
  %137 = getelementptr inbounds i8, ptr %132, i64 %136
  %138 = load i8, ptr %137, align 1, !tbaa !30
  store i8 %138, ptr %9, align 1, !tbaa !30
  %139 = zext i8 %138 to i32
  %140 = ashr i32 %139, 5
  %141 = shl i32 1, %140
  %142 = and i32 %129, %141
  %143 = icmp ne i32 %142, 0
  br i1 %143, label %144, label %249

144:                                              ; preds = %123
  %145 = load i8, ptr %9, align 1, !tbaa !30
  %146 = zext i8 %145 to i32
  %147 = and i32 %146, 63
  %148 = trunc i32 %147 to i8
  store i8 %148, ptr %9, align 1, !tbaa !30
  br i1 true, label %203, label %249

149:                                              ; preds = %120
  %150 = load i32, ptr %7, align 4, !tbaa !14
  %151 = sub nsw i32 %150, 240
  store i32 %151, ptr %7, align 4, !tbaa !14
  %152 = icmp sle i32 %151, 4
  br i1 %152, label %153, label %249

153:                                              ; preds = %149
  %154 = load ptr, ptr %6, align 8, !tbaa !48
  %155 = getelementptr inbounds nuw %struct.UCaseContext, ptr %154, i32 0, i32 0
  %156 = load ptr, ptr %155, align 8, !tbaa !38
  %157 = load ptr, ptr %6, align 8, !tbaa !48
  %158 = getelementptr inbounds nuw %struct.UCaseContext, ptr %157, i32 0, i32 2
  %159 = load i32, ptr %158, align 4, !tbaa !50
  %160 = sext i32 %159 to i64
  %161 = getelementptr inbounds i8, ptr %156, i64 %160
  %162 = load i8, ptr %161, align 1, !tbaa !30
  store i8 %162, ptr %9, align 1, !tbaa !30
  %163 = zext i8 %162 to i32
  %164 = ashr i32 %163, 4
  %165 = sext i32 %164 to i64
  %166 = getelementptr inbounds [17 x i8], ptr @.str.1, i64 0, i64 %165
  %167 = load i8, ptr %166, align 1, !tbaa !30
  %168 = sext i8 %167 to i32
  %169 = load i32, ptr %7, align 4, !tbaa !14
  %170 = shl i32 1, %169
  %171 = and i32 %168, %170
  %172 = icmp ne i32 %171, 0
  br i1 %172, label %173, label %249

173:                                              ; preds = %153
  %174 = load i32, ptr %7, align 4, !tbaa !14
  %175 = shl i32 %174, 6
  %176 = load i8, ptr %9, align 1, !tbaa !30
  %177 = zext i8 %176 to i32
  %178 = and i32 %177, 63
  %179 = or i32 %175, %178
  store i32 %179, ptr %7, align 4, !tbaa !14
  %180 = load ptr, ptr %6, align 8, !tbaa !48
  %181 = getelementptr inbounds nuw %struct.UCaseContext, ptr %180, i32 0, i32 2
  %182 = load i32, ptr %181, align 4, !tbaa !50
  %183 = add nsw i32 %182, 1
  store i32 %183, ptr %181, align 4, !tbaa !50
  %184 = load ptr, ptr %6, align 8, !tbaa !48
  %185 = getelementptr inbounds nuw %struct.UCaseContext, ptr %184, i32 0, i32 3
  %186 = load i32, ptr %185, align 8, !tbaa !40
  %187 = icmp ne i32 %183, %186
  br i1 %187, label %188, label %249

188:                                              ; preds = %173
  %189 = load ptr, ptr %6, align 8, !tbaa !48
  %190 = getelementptr inbounds nuw %struct.UCaseContext, ptr %189, i32 0, i32 0
  %191 = load ptr, ptr %190, align 8, !tbaa !38
  %192 = load ptr, ptr %6, align 8, !tbaa !48
  %193 = getelementptr inbounds nuw %struct.UCaseContext, ptr %192, i32 0, i32 2
  %194 = load i32, ptr %193, align 4, !tbaa !50
  %195 = sext i32 %194 to i64
  %196 = getelementptr inbounds i8, ptr %191, i64 %195
  %197 = load i8, ptr %196, align 1, !tbaa !30
  %198 = zext i8 %197 to i32
  %199 = sub nsw i32 %198, 128
  %200 = trunc i32 %199 to i8
  store i8 %200, ptr %9, align 1, !tbaa !30
  %201 = zext i8 %200 to i32
  %202 = icmp sle i32 %201, 63
  br i1 %202, label %203, label %249

203:                                              ; preds = %188, %144
  %204 = load i32, ptr %7, align 4, !tbaa !14
  %205 = shl i32 %204, 6
  %206 = load i8, ptr %9, align 1, !tbaa !30
  %207 = zext i8 %206 to i32
  %208 = or i32 %205, %207
  store i32 %208, ptr %7, align 4, !tbaa !14
  %209 = load ptr, ptr %6, align 8, !tbaa !48
  %210 = getelementptr inbounds nuw %struct.UCaseContext, ptr %209, i32 0, i32 2
  %211 = load i32, ptr %210, align 4, !tbaa !50
  %212 = add nsw i32 %211, 1
  store i32 %212, ptr %210, align 4, !tbaa !50
  %213 = load ptr, ptr %6, align 8, !tbaa !48
  %214 = getelementptr inbounds nuw %struct.UCaseContext, ptr %213, i32 0, i32 3
  %215 = load i32, ptr %214, align 8, !tbaa !40
  %216 = icmp ne i32 %212, %215
  br i1 %216, label %223, label %249

217:                                              ; preds = %117
  %218 = load i32, ptr %7, align 4, !tbaa !14
  %219 = icmp sge i32 %218, 194
  br i1 %219, label %220, label %249

220:                                              ; preds = %217
  %221 = load i32, ptr %7, align 4, !tbaa !14
  %222 = and i32 %221, 31
  store i32 %222, ptr %7, align 4, !tbaa !14
  br i1 true, label %223, label %249

223:                                              ; preds = %220, %203
  %224 = load ptr, ptr %6, align 8, !tbaa !48
  %225 = getelementptr inbounds nuw %struct.UCaseContext, ptr %224, i32 0, i32 0
  %226 = load ptr, ptr %225, align 8, !tbaa !38
  %227 = load ptr, ptr %6, align 8, !tbaa !48
  %228 = getelementptr inbounds nuw %struct.UCaseContext, ptr %227, i32 0, i32 2
  %229 = load i32, ptr %228, align 4, !tbaa !50
  %230 = sext i32 %229 to i64
  %231 = getelementptr inbounds i8, ptr %226, i64 %230
  %232 = load i8, ptr %231, align 1, !tbaa !30
  %233 = zext i8 %232 to i32
  %234 = sub nsw i32 %233, 128
  %235 = trunc i32 %234 to i8
  store i8 %235, ptr %9, align 1, !tbaa !30
  %236 = zext i8 %235 to i32
  %237 = icmp sle i32 %236, 63
  br i1 %237, label %238, label %249

238:                                              ; preds = %223
  %239 = load i32, ptr %7, align 4, !tbaa !14
  %240 = shl i32 %239, 6
  %241 = load i8, ptr %9, align 1, !tbaa !30
  %242 = zext i8 %241 to i32
  %243 = or i32 %240, %242
  store i32 %243, ptr %7, align 4, !tbaa !14
  %244 = load ptr, ptr %6, align 8, !tbaa !48
  %245 = getelementptr inbounds nuw %struct.UCaseContext, ptr %244, i32 0, i32 2
  %246 = load i32, ptr %245, align 4, !tbaa !50
  %247 = add nsw i32 %246, 1
  store i32 %247, ptr %245, align 4, !tbaa !50
  br i1 true, label %248, label %249

248:                                              ; preds = %238
  br label %250

249:                                              ; preds = %238, %223, %220, %217, %203, %188, %173, %153, %149, %144, %123, %109
  store i32 -1, ptr %7, align 4, !tbaa !14
  br label %250

250:                                              ; preds = %249, %248
  call void @llvm.lifetime.end.p0(i64 1, ptr %9) #12
  br label %251

251:                                              ; preds = %250, %94
  br label %252

252:                                              ; preds = %251
  br label %253

253:                                              ; preds = %252
  %254 = load i32, ptr %7, align 4, !tbaa !14
  store i32 %254, ptr %3, align 4
  store i32 1, ptr %8, align 4
  br label %257

255:                                              ; preds = %85
  br label %256

256:                                              ; preds = %255, %84
  store i32 -1, ptr %3, align 4
  store i32 1, ptr %8, align 4
  br label %257

257:                                              ; preds = %256, %253, %82
  call void @llvm.lifetime.end.p0(i64 4, ptr %7) #12
  call void @llvm.lifetime.end.p0(i64 8, ptr %6) #12
  %258 = load i32, ptr %3, align 4
  ret i32 %258
}