; Function Attrs: mustprogress uwtable
define internal noundef i32 @_ZN12_GLOBAL__N_124utf8_caseContextIteratorEPva(ptr noundef %0, i8 noundef signext %1) #1 {
  %3 = icmp slt i8 %1, 0
  br i1 %3, label %.critedge, label %8

.critedge:                                        ; preds = %2
  %4 = getelementptr inbounds nuw i8, ptr %0, i64 20
  %5 = load i32, ptr %4, align 4, !tbaa !28
  %6 = getelementptr inbounds nuw i8, ptr %0, i64 12
  store i32 %5, ptr %6, align 4, !tbaa !33
  %7 = getelementptr inbounds nuw i8, ptr %0, i64 28
  store i8 %1, ptr %7, align 4, !tbaa !34
  br label %._crit_edge77

8:                                                ; preds = %2
  %.not = icmp eq i8 %1, 0
  br i1 %.not, label %13, label %.critedge76

.critedge76:                                      ; preds = %8
  %9 = getelementptr inbounds nuw i8, ptr %0, i64 24
  %10 = load i32, ptr %9, align 8, !tbaa !29
  %11 = getelementptr inbounds nuw i8, ptr %0, i64 12
  store i32 %10, ptr %11, align 4, !tbaa !33
  %12 = getelementptr inbounds nuw i8, ptr %0, i64 28
  store i8 %1, ptr %12, align 4, !tbaa !34
  br label %._crit_edge

13:                                               ; preds = %8
  %14 = getelementptr inbounds nuw i8, ptr %0, i64 28
  %15 = load i8, ptr %14, align 4, !tbaa !34
  %16 = icmp slt i8 %15, 0
  %.phi.trans.insert78 = getelementptr inbounds nuw i8, ptr %0, i64 12
  %.pre79 = load i32, ptr %.phi.trans.insert78, align 4, !tbaa !33
  br i1 %16, label %._crit_edge77, label %._crit_edge

._crit_edge77:                                    ; preds = %13, %.critedge
  %17 = phi i32 [ %5, %.critedge ], [ %.pre79, %13 ]
  %18 = getelementptr inbounds nuw i8, ptr %0, i64 8
  %19 = load i32, ptr %18, align 8, !tbaa !35
  %20 = getelementptr inbounds nuw i8, ptr %0, i64 12
  %21 = icmp slt i32 %19, %17
  br i1 %21, label %22, label %113

22:                                               ; preds = %._crit_edge77
  %23 = load ptr, ptr %0, align 8, !tbaa !23
  %24 = add nsw i32 %17, -1
  store i32 %24, ptr %20, align 4, !tbaa !33
  %25 = sext i32 %24 to i64
  %26 = getelementptr inbounds i8, ptr %23, i64 %25
  %27 = load i8, ptr %26, align 1, !tbaa !20
  %28 = zext i8 %27 to i32
  %29 = icmp sgt i8 %27, -1
  br i1 %29, label %113, label %30

30:                                               ; preds = %22
  %31 = tail call i32 @utf8_prevCharSafeBody_77(ptr noundef nonnull %23, i32 noundef %19, ptr noundef nonnull %20, i32 noundef %28, i8 noundef signext -1)
  br label %113

._crit_edge:                                      ; preds = %13, %.critedge76
  %32 = phi i32 [ %10, %.critedge76 ], [ %.pre79, %13 ]
  %33 = getelementptr inbounds nuw i8, ptr %0, i64 12
  %34 = getelementptr inbounds nuw i8, ptr %0, i64 16
  %35 = load i32, ptr %34, align 8, !tbaa !25
  %36 = icmp slt i32 %32, %35
  br i1 %36, label %37, label %113

37:                                               ; preds = %._crit_edge
  %38 = load ptr, ptr %0, align 8, !tbaa !23
  %39 = add nsw i32 %32, 1
  store i32 %39, ptr %33, align 4, !tbaa !33
  %40 = sext i32 %32 to i64
  %41 = getelementptr inbounds i8, ptr %38, i64 %40
  %42 = load i8, ptr %41, align 1, !tbaa !20
  %43 = zext i8 %42 to i32
  %44 = icmp sgt i8 %42, -1
  br i1 %44, label %113, label %45

45:                                               ; preds = %37
  %.not70 = icmp eq i32 %39, %35
  br i1 %.not70, label %113, label %46

46:                                               ; preds = %45
  %47 = icmp samesign ugt i8 %42, -33
  br i1 %47, label %48, label %97

48:                                               ; preds = %46
  %49 = icmp samesign ult i8 %42, -16
  br i1 %49, label %50, label %65

50:                                               ; preds = %48
  %51 = and i32 %43, 15
  %52 = zext nneg i32 %51 to i64
  %53 = getelementptr inbounds nuw [17 x i8], ptr @.str, i64 0, i64 %52
  %54 = load i8, ptr %53, align 1, !tbaa !20
  %55 = zext i8 %54 to i32
  %56 = sext i32 %39 to i64
  %57 = getelementptr inbounds i8, ptr %38, i64 %56
  %58 = load i8, ptr %57, align 1, !tbaa !20
  %59 = lshr i8 %58, 5
  %60 = zext nneg i8 %59 to i32
  %61 = shl nuw nsw i32 1, %60
  %62 = and i32 %61, %55
  %.not73 = icmp eq i32 %62, 0
  br i1 %.not73, label %113, label %63

63:                                               ; preds = %50
  %64 = and i8 %58, 63
  br label %91

65:                                               ; preds = %48
  %66 = add nsw i32 %43, -240
  %67 = icmp samesign ult i8 %42, -11
  br i1 %67, label %68, label %113

68:                                               ; preds = %65
  %69 = sext i32 %39 to i64
  %70 = getelementptr inbounds i8, ptr %38, i64 %69
  %71 = load i8, ptr %70, align 1, !tbaa !20
  %72 = zext i8 %71 to i32
  %73 = lshr i32 %72, 4
  %74 = zext nneg i32 %73 to i64
  %75 = getelementptr inbounds nuw [17 x i8], ptr @.str.1, i64 0, i64 %74
  %76 = load i8, ptr %75, align 1, !tbaa !20
  %77 = sext i8 %76 to i32
  %78 = shl nuw nsw i32 1, %66
  %79 = and i32 %78, %77
  %.not71 = icmp eq i32 %79, 0
  br i1 %.not71, label %113, label %80

80:                                               ; preds = %68
  %81 = add nsw i32 %32, 2
  store i32 %81, ptr %33, align 4, !tbaa !33
  %.not72 = icmp eq i32 %81, %35
  br i1 %.not72, label %113, label %82

82:                                               ; preds = %80
  %83 = shl nuw nsw i32 %66, 6
  %84 = and i32 %72, 63
  %85 = or disjoint i32 %84, %83
  %86 = sext i32 %81 to i64
  %87 = getelementptr inbounds i8, ptr %38, i64 %86
  %88 = load i8, ptr %87, align 1, !tbaa !20
  %89 = xor i8 %88, -128
  %90 = icmp ult i8 %89, 64
  br i1 %90, label %91, label %113

91:                                               ; preds = %63, %82
  %92 = phi i32 [ %39, %63 ], [ %81, %82 ]
  %.1 = phi i32 [ %51, %63 ], [ %85, %82 ]
  %.0 = phi i8 [ %64, %63 ], [ %89, %82 ]
  %93 = shl nuw nsw i32 %.1, 6
  %94 = zext nneg i8 %.0 to i32
  %95 = or disjoint i32 %93, %94
  %96 = add nsw i32 %92, 1
  store i32 %96, ptr %33, align 4, !tbaa !33
  %.not74 = icmp eq i32 %96, %35
  br i1 %.not74, label %113, label %101

97:                                               ; preds = %46
  %98 = icmp samesign ugt i8 %42, -63
  br i1 %98, label %99, label %113

99:                                               ; preds = %97
  %100 = and i32 %43, 31
  br label %101

101:                                              ; preds = %99, %91
  %102 = phi i32 [ %96, %91 ], [ %39, %99 ]
  %.2 = phi i32 [ %95, %91 ], [ %100, %99 ]
  %103 = sext i32 %102 to i64
  %104 = getelementptr inbounds i8, ptr %38, i64 %103
  %105 = load i8, ptr %104, align 1, !tbaa !20
  %106 = xor i8 %105, -128
  %107 = icmp ult i8 %106, 64
  br i1 %107, label %108, label %113

108:                                              ; preds = %101
  %109 = zext nneg i8 %106 to i32
  %110 = shl nuw nsw i32 %.2, 6
  %111 = or disjoint i32 %110, %109
  %112 = add nsw i32 %102, 1
  store i32 %112, ptr %33, align 4, !tbaa !33
  br label %113

113:                                              ; preds = %._crit_edge77, %._crit_edge, %37, %45, %50, %65, %68, %80, %82, %91, %97, %101, %108, %22, %30
  %.059 = phi i32 [ %28, %22 ], [ %31, %30 ], [ %43, %37 ], [ %111, %108 ], [ -1, %101 ], [ -1, %97 ], [ -1, %91 ], [ -1, %82 ], [ -1, %80 ], [ -1, %68 ], [ -1, %65 ], [ -1, %50 ], [ -1, %45 ], [ -1, %._crit_edge ], [ -1, %._crit_edge77 ]
  ret i32 %.059
}